
application.elf:     file format elf32-avr

Sections:
Idx Name          Size      VMA       LMA       File off  Algn
  0 .text         0000093e  00000000  00000000  00000074  2**1
                  CONTENTS, ALLOC, LOAD, READONLY, CODE
  1 .data         0000000a  00800060  0000093e  000009b2  2**0
                  CONTENTS, ALLOC, LOAD, DATA
  2 .stab         00000d2c  00000000  00000000  000009bc  2**2
                  CONTENTS, READONLY, DEBUGGING
  3 .stabstr      00000994  00000000  00000000  000016e8  2**0
                  CONTENTS, READONLY, DEBUGGING

Disassembly of section .text:

00000000 <__vectors>:
   0:	0c 94 2a 00 	jmp	0x54	; 0x54 <__ctors_end>
   4:	0c 94 3f 00 	jmp	0x7e	; 0x7e <__bad_interrupt>
   8:	0c 94 3f 00 	jmp	0x7e	; 0x7e <__bad_interrupt>
   c:	0c 94 3f 00 	jmp	0x7e	; 0x7e <__bad_interrupt>
  10:	0c 94 3f 00 	jmp	0x7e	; 0x7e <__bad_interrupt>
  14:	0c 94 3f 00 	jmp	0x7e	; 0x7e <__bad_interrupt>
  18:	0c 94 3f 00 	jmp	0x7e	; 0x7e <__bad_interrupt>
  1c:	0c 94 3f 00 	jmp	0x7e	; 0x7e <__bad_interrupt>
  20:	0c 94 3f 00 	jmp	0x7e	; 0x7e <__bad_interrupt>
  24:	0c 94 3f 00 	jmp	0x7e	; 0x7e <__bad_interrupt>
  28:	0c 94 3f 00 	jmp	0x7e	; 0x7e <__bad_interrupt>
  2c:	0c 94 3f 00 	jmp	0x7e	; 0x7e <__bad_interrupt>
  30:	0c 94 3f 00 	jmp	0x7e	; 0x7e <__bad_interrupt>
  34:	0c 94 3f 00 	jmp	0x7e	; 0x7e <__bad_interrupt>
  38:	0c 94 3f 00 	jmp	0x7e	; 0x7e <__bad_interrupt>
  3c:	0c 94 3f 00 	jmp	0x7e	; 0x7e <__bad_interrupt>
  40:	0c 94 3f 00 	jmp	0x7e	; 0x7e <__bad_interrupt>
  44:	0c 94 3f 00 	jmp	0x7e	; 0x7e <__bad_interrupt>
  48:	0c 94 3f 00 	jmp	0x7e	; 0x7e <__bad_interrupt>
  4c:	0c 94 3f 00 	jmp	0x7e	; 0x7e <__bad_interrupt>
  50:	0c 94 3f 00 	jmp	0x7e	; 0x7e <__bad_interrupt>

00000054 <__ctors_end>:
  54:	11 24       	eor	r1, r1
  56:	1f be       	out	0x3f, r1	; 63
  58:	cf e5       	ldi	r28, 0x5F	; 95
  5a:	d8 e0       	ldi	r29, 0x08	; 8
  5c:	de bf       	out	0x3e, r29	; 62
  5e:	cd bf       	out	0x3d, r28	; 61

00000060 <__do_copy_data>:
  60:	10 e0       	ldi	r17, 0x00	; 0
  62:	a0 e6       	ldi	r26, 0x60	; 96
  64:	b0 e0       	ldi	r27, 0x00	; 0
  66:	ee e3       	ldi	r30, 0x3E	; 62
  68:	f9 e0       	ldi	r31, 0x09	; 9
  6a:	02 c0       	rjmp	.+4      	; 0x70 <.do_copy_data_start>

0000006c <.do_copy_data_loop>:
  6c:	05 90       	lpm	r0, Z+
  6e:	0d 92       	st	X+, r0

00000070 <.do_copy_data_start>:
  70:	aa 36       	cpi	r26, 0x6A	; 106
  72:	b1 07       	cpc	r27, r17
  74:	d9 f7       	brne	.-10     	; 0x6c <.do_copy_data_loop>
  76:	0e 94 91 04 	call	0x922	; 0x922 <main>
  7a:	0c 94 9d 04 	jmp	0x93a	; 0x93a <_exit>

0000007e <__bad_interrupt>:
  7e:	0c 94 00 00 	jmp	0	; 0x0 <__vectors>

00000082 <MDIO_vInit>:
  82:	df 93       	push	r29
  84:	cf 93       	push	r28
  86:	cd b7       	in	r28, 0x3d	; 61
  88:	de b7       	in	r29, 0x3e	; 62
  8a:	ea e3       	ldi	r30, 0x3A	; 58
  8c:	f0 e0       	ldi	r31, 0x00	; 0
  8e:	10 82       	st	Z, r1
  90:	e7 e3       	ldi	r30, 0x37	; 55
  92:	f0 e0       	ldi	r31, 0x00	; 0
  94:	10 82       	st	Z, r1
  96:	e4 e3       	ldi	r30, 0x34	; 52
  98:	f0 e0       	ldi	r31, 0x00	; 0
  9a:	10 82       	st	Z, r1
  9c:	e1 e3       	ldi	r30, 0x31	; 49
  9e:	f0 e0       	ldi	r31, 0x00	; 0
  a0:	10 82       	st	Z, r1
  a2:	eb e3       	ldi	r30, 0x3B	; 59
  a4:	f0 e0       	ldi	r31, 0x00	; 0
  a6:	10 82       	st	Z, r1
  a8:	e8 e3       	ldi	r30, 0x38	; 56
  aa:	f0 e0       	ldi	r31, 0x00	; 0
  ac:	10 82       	st	Z, r1
  ae:	e5 e3       	ldi	r30, 0x35	; 53
  b0:	f0 e0       	ldi	r31, 0x00	; 0
  b2:	10 82       	st	Z, r1
  b4:	e2 e3       	ldi	r30, 0x32	; 50
  b6:	f0 e0       	ldi	r31, 0x00	; 0
  b8:	10 82       	st	Z, r1
  ba:	e9 e3       	ldi	r30, 0x39	; 57
  bc:	f0 e0       	ldi	r31, 0x00	; 0
  be:	10 82       	st	Z, r1
  c0:	e6 e3       	ldi	r30, 0x36	; 54
  c2:	f0 e0       	ldi	r31, 0x00	; 0
  c4:	10 82       	st	Z, r1
  c6:	e3 e3       	ldi	r30, 0x33	; 51
  c8:	f0 e0       	ldi	r31, 0x00	; 0
  ca:	10 82       	st	Z, r1
  cc:	e0 e3       	ldi	r30, 0x30	; 48
  ce:	f0 e0       	ldi	r31, 0x00	; 0
  d0:	10 82       	st	Z, r1
  d2:	cf 91       	pop	r28
  d4:	df 91       	pop	r29
  d6:	08 95       	ret

000000d8 <MDIO_vSetPinDirection>:
	PINB	= 0;
	PINC	= 0;
	PIND	= 0;
}

void MDIO_vSetPinDirection(u8 A_u8PortNum , u8 A_u8PinNum , u8 A_u8PinDirection){
  d8:	df 93       	push	r29
  da:	cf 93       	push	r28
  dc:	cd b7       	in	r28, 0x3d	; 61
  de:	de b7       	in	r29, 0x3e	; 62
  e0:	27 97       	sbiw	r28, 0x07	; 7
  e2:	0f b6       	in	r0, 0x3f	; 63
  e4:	f8 94       	cli
  e6:	de bf       	out	0x3e, r29	; 62
  e8:	0f be       	out	0x3f, r0	; 63
  ea:	cd bf       	out	0x3d, r28	; 61
  ec:	89 83       	std	Y+1, r24	; 0x01
  ee:	6a 83       	std	Y+2, r22	; 0x02
  f0:	4b 83       	std	Y+3, r20	; 0x03
	if(A_u8PinDirection == DIO_PIN_DIRECTION_OUTPUT){
  f2:	8b 81       	ldd	r24, Y+3	; 0x03
  f4:	81 30       	cpi	r24, 0x01	; 1
  f6:	09 f0       	breq	.+2      	; 0xfa <MDIO_vSetPinDirection+0x22>
  f8:	6f c0       	rjmp	.+222    	; 0x1d8 <MDIO_vSetPinDirection+0x100>
		switch(A_u8PortNum){
  fa:	89 81       	ldd	r24, Y+1	; 0x01
  fc:	28 2f       	mov	r18, r24
  fe:	30 e0       	ldi	r19, 0x00	; 0
 100:	3f 83       	std	Y+7, r19	; 0x07
 102:	2e 83       	std	Y+6, r18	; 0x06
 104:	8e 81       	ldd	r24, Y+6	; 0x06
 106:	9f 81       	ldd	r25, Y+7	; 0x07
 108:	81 30       	cpi	r24, 0x01	; 1
 10a:	91 05       	cpc	r25, r1
 10c:	49 f1       	breq	.+82     	; 0x160 <MDIO_vSetPinDirection+0x88>
 10e:	2e 81       	ldd	r18, Y+6	; 0x06
 110:	3f 81       	ldd	r19, Y+7	; 0x07
 112:	22 30       	cpi	r18, 0x02	; 2
 114:	31 05       	cpc	r19, r1
 116:	2c f4       	brge	.+10     	; 0x122 <MDIO_vSetPinDirection+0x4a>
 118:	8e 81       	ldd	r24, Y+6	; 0x06
 11a:	9f 81       	ldd	r25, Y+7	; 0x07
 11c:	00 97       	sbiw	r24, 0x00	; 0
 11e:	61 f0       	breq	.+24     	; 0x138 <MDIO_vSetPinDirection+0x60>
 120:	d2 c0       	rjmp	.+420    	; 0x2c6 <MDIO_vSetPinDirection+0x1ee>
 122:	2e 81       	ldd	r18, Y+6	; 0x06
 124:	3f 81       	ldd	r19, Y+7	; 0x07
 126:	22 30       	cpi	r18, 0x02	; 2
 128:	31 05       	cpc	r19, r1
 12a:	71 f1       	breq	.+92     	; 0x188 <MDIO_vSetPinDirection+0xb0>
 12c:	8e 81       	ldd	r24, Y+6	; 0x06
 12e:	9f 81       	ldd	r25, Y+7	; 0x07
 130:	83 30       	cpi	r24, 0x03	; 3
 132:	91 05       	cpc	r25, r1
 134:	e9 f1       	breq	.+122    	; 0x1b0 <MDIO_vSetPinDirection+0xd8>
 136:	c7 c0       	rjmp	.+398    	; 0x2c6 <MDIO_vSetPinDirection+0x1ee>
			case DIO_PORTA_INDEX:
				SET_BIT(DDRA , A_u8PinNum );
 138:	aa e3       	ldi	r26, 0x3A	; 58
 13a:	b0 e0       	ldi	r27, 0x00	; 0
 13c:	ea e3       	ldi	r30, 0x3A	; 58
 13e:	f0 e0       	ldi	r31, 0x00	; 0
 140:	80 81       	ld	r24, Z
 142:	48 2f       	mov	r20, r24
 144:	8a 81       	ldd	r24, Y+2	; 0x02
 146:	28 2f       	mov	r18, r24
 148:	30 e0       	ldi	r19, 0x00	; 0
 14a:	81 e0       	ldi	r24, 0x01	; 1
 14c:	90 e0       	ldi	r25, 0x00	; 0
 14e:	02 2e       	mov	r0, r18
 150:	02 c0       	rjmp	.+4      	; 0x156 <MDIO_vSetPinDirection+0x7e>
 152:	88 0f       	add	r24, r24
 154:	99 1f       	adc	r25, r25
 156:	0a 94       	dec	r0
 158:	e2 f7       	brpl	.-8      	; 0x152 <MDIO_vSetPinDirection+0x7a>
 15a:	84 2b       	or	r24, r20
 15c:	8c 93       	st	X, r24
 15e:	b3 c0       	rjmp	.+358    	; 0x2c6 <MDIO_vSetPinDirection+0x1ee>
				break;
			case DIO_PORTB_INDEX:
				SET_BIT(DDRB , A_u8PinNum );
 160:	a7 e3       	ldi	r26, 0x37	; 55
 162:	b0 e0       	ldi	r27, 0x00	; 0
 164:	e7 e3       	ldi	r30, 0x37	; 55
 166:	f0 e0       	ldi	r31, 0x00	; 0
 168:	80 81       	ld	r24, Z
 16a:	48 2f       	mov	r20, r24
 16c:	8a 81       	ldd	r24, Y+2	; 0x02
 16e:	28 2f       	mov	r18, r24
 170:	30 e0       	ldi	r19, 0x00	; 0
 172:	81 e0       	ldi	r24, 0x01	; 1
 174:	90 e0       	ldi	r25, 0x00	; 0
 176:	02 2e       	mov	r0, r18
 178:	02 c0       	rjmp	.+4      	; 0x17e <MDIO_vSetPinDirection+0xa6>
 17a:	88 0f       	add	r24, r24
 17c:	99 1f       	adc	r25, r25
 17e:	0a 94       	dec	r0
 180:	e2 f7       	brpl	.-8      	; 0x17a <MDIO_vSetPinDirection+0xa2>
 182:	84 2b       	or	r24, r20
 184:	8c 93       	st	X, r24
 186:	9f c0       	rjmp	.+318    	; 0x2c6 <MDIO_vSetPinDirection+0x1ee>
				break;
			case DIO_PORTC_INDEX:
				SET_BIT(DDRC , A_u8PinNum );
 188:	a4 e3       	ldi	r26, 0x34	; 52
 18a:	b0 e0       	ldi	r27, 0x00	; 0
 18c:	e4 e3       	ldi	r30, 0x34	; 52
 18e:	f0 e0       	ldi	r31, 0x00	; 0
 190:	80 81       	ld	r24, Z
 192:	48 2f       	mov	r20, r24
 194:	8a 81       	ldd	r24, Y+2	; 0x02
 196:	28 2f       	mov	r18, r24
 198:	30 e0       	ldi	r19, 0x00	; 0
 19a:	81 e0       	ldi	r24, 0x01	; 1
 19c:	90 e0       	ldi	r25, 0x00	; 0
 19e:	02 2e       	mov	r0, r18
 1a0:	02 c0       	rjmp	.+4      	; 0x1a6 <MDIO_vSetPinDirection+0xce>
 1a2:	88 0f       	add	r24, r24
 1a4:	99 1f       	adc	r25, r25
 1a6:	0a 94       	dec	r0
 1a8:	e2 f7       	brpl	.-8      	; 0x1a2 <MDIO_vSetPinDirection+0xca>
 1aa:	84 2b       	or	r24, r20
 1ac:	8c 93       	st	X, r24
 1ae:	8b c0       	rjmp	.+278    	; 0x2c6 <MDIO_vSetPinDirection+0x1ee>
				break;
			case DIO_PORTD_INDEX:
				SET_BIT(DDRD , A_u8PinNum );
 1b0:	a1 e3       	ldi	r26, 0x31	; 49
 1b2:	b0 e0       	ldi	r27, 0x00	; 0
 1b4:	e1 e3       	ldi	r30, 0x31	; 49
 1b6:	f0 e0       	ldi	r31, 0x00	; 0
 1b8:	80 81       	ld	r24, Z
 1ba:	48 2f       	mov	r20, r24
 1bc:	8a 81       	ldd	r24, Y+2	; 0x02
 1be:	28 2f       	mov	r18, r24
 1c0:	30 e0       	ldi	r19, 0x00	; 0
 1c2:	81 e0       	ldi	r24, 0x01	; 1
 1c4:	90 e0       	ldi	r25, 0x00	; 0
 1c6:	02 2e       	mov	r0, r18
 1c8:	02 c0       	rjmp	.+4      	; 0x1ce <MDIO_vSetPinDirection+0xf6>
 1ca:	88 0f       	add	r24, r24
 1cc:	99 1f       	adc	r25, r25
 1ce:	0a 94       	dec	r0
 1d0:	e2 f7       	brpl	.-8      	; 0x1ca <MDIO_vSetPinDirection+0xf2>
 1d2:	84 2b       	or	r24, r20
 1d4:	8c 93       	st	X, r24
 1d6:	77 c0       	rjmp	.+238    	; 0x2c6 <MDIO_vSetPinDirection+0x1ee>
				return;

			default:break;
		}
	}
	else if(A_u8PinDirection == DIO_PIN_DIRECTION_INPUT){
 1d8:	8b 81       	ldd	r24, Y+3	; 0x03
 1da:	88 23       	and	r24, r24
 1dc:	09 f0       	breq	.+2      	; 0x1e0 <MDIO_vSetPinDirection+0x108>
 1de:	73 c0       	rjmp	.+230    	; 0x2c6 <MDIO_vSetPinDirection+0x1ee>
		switch(A_u8PortNum){
 1e0:	89 81       	ldd	r24, Y+1	; 0x01
 1e2:	28 2f       	mov	r18, r24
 1e4:	30 e0       	ldi	r19, 0x00	; 0
 1e6:	3d 83       	std	Y+5, r19	; 0x05
 1e8:	2c 83       	std	Y+4, r18	; 0x04
 1ea:	8c 81       	ldd	r24, Y+4	; 0x04
 1ec:	9d 81       	ldd	r25, Y+5	; 0x05
 1ee:	81 30       	cpi	r24, 0x01	; 1
 1f0:	91 05       	cpc	r25, r1
 1f2:	59 f1       	breq	.+86     	; 0x24a <MDIO_vSetPinDirection+0x172>
 1f4:	2c 81       	ldd	r18, Y+4	; 0x04
 1f6:	3d 81       	ldd	r19, Y+5	; 0x05
 1f8:	22 30       	cpi	r18, 0x02	; 2
 1fa:	31 05       	cpc	r19, r1
 1fc:	2c f4       	brge	.+10     	; 0x208 <MDIO_vSetPinDirection+0x130>
 1fe:	8c 81       	ldd	r24, Y+4	; 0x04
 200:	9d 81       	ldd	r25, Y+5	; 0x05
 202:	00 97       	sbiw	r24, 0x00	; 0
 204:	69 f0       	breq	.+26     	; 0x220 <MDIO_vSetPinDirection+0x148>
 206:	5f c0       	rjmp	.+190    	; 0x2c6 <MDIO_vSetPinDirection+0x1ee>
 208:	2c 81       	ldd	r18, Y+4	; 0x04
 20a:	3d 81       	ldd	r19, Y+5	; 0x05
 20c:	22 30       	cpi	r18, 0x02	; 2
 20e:	31 05       	cpc	r19, r1
 210:	89 f1       	breq	.+98     	; 0x274 <MDIO_vSetPinDirection+0x19c>
 212:	8c 81       	ldd	r24, Y+4	; 0x04
 214:	9d 81       	ldd	r25, Y+5	; 0x05
 216:	83 30       	cpi	r24, 0x03	; 3
 218:	91 05       	cpc	r25, r1
 21a:	09 f4       	brne	.+2      	; 0x21e <MDIO_vSetPinDirection+0x146>
 21c:	40 c0       	rjmp	.+128    	; 0x29e <MDIO_vSetPinDirection+0x1c6>
 21e:	53 c0       	rjmp	.+166    	; 0x2c6 <MDIO_vSetPinDirection+0x1ee>
			case DIO_PORTA_INDEX:
				CLEAR_BIT(DDRA , A_u8PinNum );
 220:	aa e3       	ldi	r26, 0x3A	; 58
 222:	b0 e0       	ldi	r27, 0x00	; 0
 224:	ea e3       	ldi	r30, 0x3A	; 58
 226:	f0 e0       	ldi	r31, 0x00	; 0
 228:	80 81       	ld	r24, Z
 22a:	48 2f       	mov	r20, r24
 22c:	8a 81       	ldd	r24, Y+2	; 0x02
 22e:	28 2f       	mov	r18, r24
 230:	30 e0       	ldi	r19, 0x00	; 0
 232:	81 e0       	ldi	r24, 0x01	; 1
 234:	90 e0       	ldi	r25, 0x00	; 0
 236:	02 2e       	mov	r0, r18
 238:	02 c0       	rjmp	.+4      	; 0x23e <MDIO_vSetPinDirection+0x166>
 23a:	88 0f       	add	r24, r24
 23c:	99 1f       	adc	r25, r25
 23e:	0a 94       	dec	r0
 240:	e2 f7       	brpl	.-8      	; 0x23a <MDIO_vSetPinDirection+0x162>
 242:	80 95       	com	r24
 244:	84 23       	and	r24, r20
 246:	8c 93       	st	X, r24
 248:	3e c0       	rjmp	.+124    	; 0x2c6 <MDIO_vSetPinDirection+0x1ee>
				break;
			case DIO_PORTB_INDEX:
				CLEAR_BIT(DDRB , A_u8PinNum );
 24a:	a7 e3       	ldi	r26, 0x37	; 55
 24c:	b0 e0       	ldi	r27, 0x00	; 0
 24e:	e7 e3       	ldi	r30, 0x37	; 55
 250:	f0 e0       	ldi	r31, 0x00	; 0
 252:	80 81       	ld	r24, Z
 254:	48 2f       	mov	r20, r24
 256:	8a 81       	ldd	r24, Y+2	; 0x02
 258:	28 2f       	mov	r18, r24
 25a:	30 e0       	ldi	r19, 0x00	; 0
 25c:	81 e0       	ldi	r24, 0x01	; 1
 25e:	90 e0       	ldi	r25, 0x00	; 0
 260:	02 2e       	mov	r0, r18
 262:	02 c0       	rjmp	.+4      	; 0x268 <MDIO_vSetPinDirection+0x190>
 264:	88 0f       	add	r24, r24
 266:	99 1f       	adc	r25, r25
 268:	0a 94       	dec	r0
 26a:	e2 f7       	brpl	.-8      	; 0x264 <MDIO_vSetPinDirection+0x18c>
 26c:	80 95       	com	r24
 26e:	84 23       	and	r24, r20
 270:	8c 93       	st	X, r24
 272:	29 c0       	rjmp	.+82     	; 0x2c6 <MDIO_vSetPinDirection+0x1ee>
				break;
			case DIO_PORTC_INDEX:
				CLEAR_BIT(DDRC , A_u8PinNum );
 274:	a4 e3       	ldi	r26, 0x34	; 52
 276:	b0 e0       	ldi	r27, 0x00	; 0
 278:	e4 e3       	ldi	r30, 0x34	; 52
 27a:	f0 e0       	ldi	r31, 0x00	; 0
 27c:	80 81       	ld	r24, Z
 27e:	48 2f       	mov	r20, r24
 280:	8a 81       	ldd	r24, Y+2	; 0x02
 282:	28 2f       	mov	r18, r24
 284:	30 e0       	ldi	r19, 0x00	; 0
 286:	81 e0       	ldi	r24, 0x01	; 1
 288:	90 e0       	ldi	r25, 0x00	; 0
 28a:	02 2e       	mov	r0, r18
 28c:	02 c0       	rjmp	.+4      	; 0x292 <MDIO_vSetPinDirection+0x1ba>
 28e:	88 0f       	add	r24, r24
 290:	99 1f       	adc	r25, r25
 292:	0a 94       	dec	r0
 294:	e2 f7       	brpl	.-8      	; 0x28e <MDIO_vSetPinDirection+0x1b6>
 296:	80 95       	com	r24
 298:	84 23       	and	r24, r20
 29a:	8c 93       	st	X, r24
 29c:	14 c0       	rjmp	.+40     	; 0x2c6 <MDIO_vSetPinDirection+0x1ee>
				break;
			case DIO_PORTD_INDEX:
				CLEAR_BIT(DDRD , A_u8PinNum );
 29e:	a1 e3       	ldi	r26, 0x31	; 49
 2a0:	b0 e0       	ldi	r27, 0x00	; 0
 2a2:	e1 e3       	ldi	r30, 0x31	; 49
 2a4:	f0 e0       	ldi	r31, 0x00	; 0
 2a6:	80 81       	ld	r24, Z
 2a8:	48 2f       	mov	r20, r24
 2aa:	8a 81       	ldd	r24, Y+2	; 0x02
 2ac:	28 2f       	mov	r18, r24
 2ae:	30 e0       	ldi	r19, 0x00	; 0
 2b0:	81 e0       	ldi	r24, 0x01	; 1
 2b2:	90 e0       	ldi	r25, 0x00	; 0
 2b4:	02 2e       	mov	r0, r18
 2b6:	02 c0       	rjmp	.+4      	; 0x2bc <MDIO_vSetPinDirection+0x1e4>
 2b8:	88 0f       	add	r24, r24
 2ba:	99 1f       	adc	r25, r25
 2bc:	0a 94       	dec	r0
 2be:	e2 f7       	brpl	.-8      	; 0x2b8 <MDIO_vSetPinDirection+0x1e0>
 2c0:	80 95       	com	r24
 2c2:	84 23       	and	r24, r20
 2c4:	8c 93       	st	X, r24
		}
	}
	else{

	}
}
 2c6:	27 96       	adiw	r28, 0x07	; 7
 2c8:	0f b6       	in	r0, 0x3f	; 63
 2ca:	f8 94       	cli
 2cc:	de bf       	out	0x3e, r29	; 62
 2ce:	0f be       	out	0x3f, r0	; 63
 2d0:	cd bf       	out	0x3d, r28	; 61
 2d2:	cf 91       	pop	r28
 2d4:	df 91       	pop	r29
 2d6:	08 95       	ret

000002d8 <MDIO_vSetPinValue>:



void MDIO_vSetPinValue(u8 A_u8PortNum , u8 A_u8PinNum , u8 A_u8PinVal) {
 2d8:	df 93       	push	r29
 2da:	cf 93       	push	r28
 2dc:	cd b7       	in	r28, 0x3d	; 61
 2de:	de b7       	in	r29, 0x3e	; 62
 2e0:	27 97       	sbiw	r28, 0x07	; 7
 2e2:	0f b6       	in	r0, 0x3f	; 63
 2e4:	f8 94       	cli
 2e6:	de bf       	out	0x3e, r29	; 62
 2e8:	0f be       	out	0x3f, r0	; 63
 2ea:	cd bf       	out	0x3d, r28	; 61
 2ec:	89 83       	std	Y+1, r24	; 0x01
 2ee:	6a 83       	std	Y+2, r22	; 0x02
 2f0:	4b 83       	std	Y+3, r20	; 0x03

	if(A_u8PinVal == DIO_PIN_HIGH){
 2f2:	8b 81       	ldd	r24, Y+3	; 0x03
 2f4:	81 30       	cpi	r24, 0x01	; 1
 2f6:	09 f0       	breq	.+2      	; 0x2fa <MDIO_vSetPinValue+0x22>
 2f8:	6f c0       	rjmp	.+222    	; 0x3d8 <MDIO_vSetPinValue+0x100>
		switch(A_u8PortNum){
 2fa:	89 81       	ldd	r24, Y+1	; 0x01
 2fc:	28 2f       	mov	r18, r24
 2fe:	30 e0       	ldi	r19, 0x00	; 0
 300:	3f 83       	std	Y+7, r19	; 0x07
 302:	2e 83       	std	Y+6, r18	; 0x06
 304:	8e 81       	ldd	r24, Y+6	; 0x06
 306:	9f 81       	ldd	r25, Y+7	; 0x07
 308:	81 30       	cpi	r24, 0x01	; 1
 30a:	91 05       	cpc	r25, r1
 30c:	49 f1       	breq	.+82     	; 0x360 <MDIO_vSetPinValue+0x88>
 30e:	2e 81       	ldd	r18, Y+6	; 0x06
 310:	3f 81       	ldd	r19, Y+7	; 0x07
 312:	22 30       	cpi	r18, 0x02	; 2
 314:	31 05       	cpc	r19, r1
 316:	2c f4       	brge	.+10     	; 0x322 <MDIO_vSetPinValue+0x4a>
 318:	8e 81       	ldd	r24, Y+6	; 0x06
 31a:	9f 81       	ldd	r25, Y+7	; 0x07
 31c:	00 97       	sbiw	r24, 0x00	; 0
 31e:	61 f0       	breq	.+24     	; 0x338 <MDIO_vSetPinValue+0x60>
 320:	d2 c0       	rjmp	.+420    	; 0x4c6 <MDIO_vSetPinValue+0x1ee>
 322:	2e 81       	ldd	r18, Y+6	; 0x06
 324:	3f 81       	ldd	r19, Y+7	; 0x07
 326:	22 30       	cpi	r18, 0x02	; 2
 328:	31 05       	cpc	r19, r1
 32a:	71 f1       	breq	.+92     	; 0x388 <MDIO_vSetPinValue+0xb0>
 32c:	8e 81       	ldd	r24, Y+6	; 0x06
 32e:	9f 81       	ldd	r25, Y+7	; 0x07
 330:	83 30       	cpi	r24, 0x03	; 3
 332:	91 05       	cpc	r25, r1
 334:	e9 f1       	breq	.+122    	; 0x3b0 <MDIO_vSetPinValue+0xd8>
 336:	c7 c0       	rjmp	.+398    	; 0x4c6 <MDIO_vSetPinValue+0x1ee>
			case DIO_PORTA_INDEX:
				SET_BIT(PORTA , A_u8PinNum );
 338:	ab e3       	ldi	r26, 0x3B	; 59
 33a:	b0 e0       	ldi	r27, 0x00	; 0
 33c:	eb e3       	ldi	r30, 0x3B	; 59
 33e:	f0 e0       	ldi	r31, 0x00	; 0
 340:	80 81       	ld	r24, Z
 342:	48 2f       	mov	r20, r24
 344:	8a 81       	ldd	r24, Y+2	; 0x02
 346:	28 2f       	mov	r18, r24
 348:	30 e0       	ldi	r19, 0x00	; 0
 34a:	81 e0       	ldi	r24, 0x01	; 1
 34c:	90 e0       	ldi	r25, 0x00	; 0
 34e:	02 2e       	mov	r0, r18
 350:	02 c0       	rjmp	.+4      	; 0x356 <MDIO_vSetPinValue+0x7e>
 352:	88 0f       	add	r24, r24
 354:	99 1f       	adc	r25, r25
 356:	0a 94       	dec	r0
 358:	e2 f7       	brpl	.-8      	; 0x352 <MDIO_vSetPinValue+0x7a>
 35a:	84 2b       	or	r24, r20
 35c:	8c 93       	st	X, r24
 35e:	b3 c0       	rjmp	.+358    	; 0x4c6 <MDIO_vSetPinValue+0x1ee>
				break;
			case DIO_PORTB_INDEX:
				SET_BIT(PORTB , A_u8PinNum );
 360:	a8 e3       	ldi	r26, 0x38	; 56
 362:	b0 e0       	ldi	r27, 0x00	; 0
 364:	e8 e3       	ldi	r30, 0x38	; 56
 366:	f0 e0       	ldi	r31, 0x00	; 0
 368:	80 81       	ld	r24, Z
 36a:	48 2f       	mov	r20, r24
 36c:	8a 81       	ldd	r24, Y+2	; 0x02
 36e:	28 2f       	mov	r18, r24
 370:	30 e0       	ldi	r19, 0x00	; 0
 372:	81 e0       	ldi	r24, 0x01	; 1
 374:	90 e0       	ldi	r25, 0x00	; 0
 376:	02 2e       	mov	r0, r18
 378:	02 c0       	rjmp	.+4      	; 0x37e <MDIO_vSetPinValue+0xa6>
 37a:	88 0f       	add	r24, r24
 37c:	99 1f       	adc	r25, r25
 37e:	0a 94       	dec	r0
 380:	e2 f7       	brpl	.-8      	; 0x37a <MDIO_vSetPinValue+0xa2>
 382:	84 2b       	or	r24, r20
 384:	8c 93       	st	X, r24
 386:	9f c0       	rjmp	.+318    	; 0x4c6 <MDIO_vSetPinValue+0x1ee>
				break;
			case DIO_PORTC_INDEX:
				SET_BIT(PORTC , A_u8PinNum );
 388:	a5 e3       	ldi	r26, 0x35	; 53
 38a:	b0 e0       	ldi	r27, 0x00	; 0
 38c:	e5 e3       	ldi	r30, 0x35	; 53
 38e:	f0 e0       	ldi	r31, 0x00	; 0
 390:	80 81       	ld	r24, Z
 392:	48 2f       	mov	r20, r24
 394:	8a 81       	ldd	r24, Y+2	; 0x02
 396:	28 2f       	mov	r18, r24
 398:	30 e0       	ldi	r19, 0x00	; 0
 39a:	81 e0       	ldi	r24, 0x01	; 1
 39c:	90 e0       	ldi	r25, 0x00	; 0
 39e:	02 2e       	mov	r0, r18
 3a0:	02 c0       	rjmp	.+4      	; 0x3a6 <MDIO_vSetPinValue+0xce>
 3a2:	88 0f       	add	r24, r24
 3a4:	99 1f       	adc	r25, r25
 3a6:	0a 94       	dec	r0
 3a8:	e2 f7       	brpl	.-8      	; 0x3a2 <MDIO_vSetPinValue+0xca>
 3aa:	84 2b       	or	r24, r20
 3ac:	8c 93       	st	X, r24
 3ae:	8b c0       	rjmp	.+278    	; 0x4c6 <MDIO_vSetPinValue+0x1ee>
				break;
			case DIO_PORTD_INDEX:
				SET_BIT(PORTD , A_u8PinNum );
 3b0:	a2 e3       	ldi	r26, 0x32	; 50
 3b2:	b0 e0       	ldi	r27, 0x00	; 0
 3b4:	e2 e3       	ldi	r30, 0x32	; 50
 3b6:	f0 e0       	ldi	r31, 0x00	; 0
 3b8:	80 81       	ld	r24, Z
 3ba:	48 2f       	mov	r20, r24
 3bc:	8a 81       	ldd	r24, Y+2	; 0x02
 3be:	28 2f       	mov	r18, r24
 3c0:	30 e0       	ldi	r19, 0x00	; 0
 3c2:	81 e0       	ldi	r24, 0x01	; 1
 3c4:	90 e0       	ldi	r25, 0x00	; 0
 3c6:	02 2e       	mov	r0, r18
 3c8:	02 c0       	rjmp	.+4      	; 0x3ce <MDIO_vSetPinValue+0xf6>
 3ca:	88 0f       	add	r24, r24
 3cc:	99 1f       	adc	r25, r25
 3ce:	0a 94       	dec	r0
 3d0:	e2 f7       	brpl	.-8      	; 0x3ca <MDIO_vSetPinValue+0xf2>
 3d2:	84 2b       	or	r24, r20
 3d4:	8c 93       	st	X, r24
 3d6:	77 c0       	rjmp	.+238    	; 0x4c6 <MDIO_vSetPinValue+0x1ee>
				break;

			default:break;
			}
		}
	else if(A_u8PinVal == DIO_PIN_LOW){
 3d8:	8b 81       	ldd	r24, Y+3	; 0x03
 3da:	88 23       	and	r24, r24
 3dc:	09 f0       	breq	.+2      	; 0x3e0 <MDIO_vSetPinValue+0x108>
 3de:	73 c0       	rjmp	.+230    	; 0x4c6 <MDIO_vSetPinValue+0x1ee>
		switch(A_u8PortNum){
 3e0:	89 81       	ldd	r24, Y+1	; 0x01
 3e2:	28 2f       	mov	r18, r24
 3e4:	30 e0       	ldi	r19, 0x00	; 0
 3e6:	3d 83       	std	Y+5, r19	; 0x05
 3e8:	2c 83       	std	Y+4, r18	; 0x04
 3ea:	8c 81       	ldd	r24, Y+4	; 0x04
 3ec:	9d 81       	ldd	r25, Y+5	; 0x05
 3ee:	81 30       	cpi	r24, 0x01	; 1
 3f0:	91 05       	cpc	r25, r1
 3f2:	59 f1       	breq	.+86     	; 0x44a <MDIO_vSetPinValue+0x172>
 3f4:	2c 81       	ldd	r18, Y+4	; 0x04
 3f6:	3d 81       	ldd	r19, Y+5	; 0x05
 3f8:	22 30       	cpi	r18, 0x02	; 2
 3fa:	31 05       	cpc	r19, r1
 3fc:	2c f4       	brge	.+10     	; 0x408 <MDIO_vSetPinValue+0x130>
 3fe:	8c 81       	ldd	r24, Y+4	; 0x04
 400:	9d 81       	ldd	r25, Y+5	; 0x05
 402:	00 97       	sbiw	r24, 0x00	; 0
 404:	69 f0       	breq	.+26     	; 0x420 <MDIO_vSetPinValue+0x148>
 406:	5f c0       	rjmp	.+190    	; 0x4c6 <MDIO_vSetPinValue+0x1ee>
 408:	2c 81       	ldd	r18, Y+4	; 0x04
 40a:	3d 81       	ldd	r19, Y+5	; 0x05
 40c:	22 30       	cpi	r18, 0x02	; 2
 40e:	31 05       	cpc	r19, r1
 410:	89 f1       	breq	.+98     	; 0x474 <MDIO_vSetPinValue+0x19c>
 412:	8c 81       	ldd	r24, Y+4	; 0x04
 414:	9d 81       	ldd	r25, Y+5	; 0x05
 416:	83 30       	cpi	r24, 0x03	; 3
 418:	91 05       	cpc	r25, r1
 41a:	09 f4       	brne	.+2      	; 0x41e <MDIO_vSetPinValue+0x146>
 41c:	40 c0       	rjmp	.+128    	; 0x49e <MDIO_vSetPinValue+0x1c6>
 41e:	53 c0       	rjmp	.+166    	; 0x4c6 <MDIO_vSetPinValue+0x1ee>
			case DIO_PORTA_INDEX:
				CLEAR_BIT(PORTA , A_u8PinNum );
 420:	ab e3       	ldi	r26, 0x3B	; 59
 422:	b0 e0       	ldi	r27, 0x00	; 0
 424:	eb e3       	ldi	r30, 0x3B	; 59
 426:	f0 e0       	ldi	r31, 0x00	; 0
 428:	80 81       	ld	r24, Z
 42a:	48 2f       	mov	r20, r24
 42c:	8a 81       	ldd	r24, Y+2	; 0x02
 42e:	28 2f       	mov	r18, r24
 430:	30 e0       	ldi	r19, 0x00	; 0
 432:	81 e0       	ldi	r24, 0x01	; 1
 434:	90 e0       	ldi	r25, 0x00	; 0
 436:	02 2e       	mov	r0, r18
 438:	02 c0       	rjmp	.+4      	; 0x43e <MDIO_vSetPinValue+0x166>
 43a:	88 0f       	add	r24, r24
 43c:	99 1f       	adc	r25, r25
 43e:	0a 94       	dec	r0
 440:	e2 f7       	brpl	.-8      	; 0x43a <MDIO_vSetPinValue+0x162>
 442:	80 95       	com	r24
 444:	84 23       	and	r24, r20
 446:	8c 93       	st	X, r24
 448:	3e c0       	rjmp	.+124    	; 0x4c6 <MDIO_vSetPinValue+0x1ee>
				break;
			case DIO_PORTB_INDEX:
				CLEAR_BIT(PORTB , A_u8PinNum );
 44a:	a8 e3       	ldi	r26, 0x38	; 56
 44c:	b0 e0       	ldi	r27, 0x00	; 0
 44e:	e8 e3       	ldi	r30, 0x38	; 56
 450:	f0 e0       	ldi	r31, 0x00	; 0
 452:	80 81       	ld	r24, Z
 454:	48 2f       	mov	r20, r24
 456:	8a 81       	ldd	r24, Y+2	; 0x02
 458:	28 2f       	mov	r18, r24
 45a:	30 e0       	ldi	r19, 0x00	; 0
 45c:	81 e0       	ldi	r24, 0x01	; 1
 45e:	90 e0       	ldi	r25, 0x00	; 0
 460:	02 2e       	mov	r0, r18
 462:	02 c0       	rjmp	.+4      	; 0x468 <MDIO_vSetPinValue+0x190>
 464:	88 0f       	add	r24, r24
 466:	99 1f       	adc	r25, r25
 468:	0a 94       	dec	r0
 46a:	e2 f7       	brpl	.-8      	; 0x464 <MDIO_vSetPinValue+0x18c>
 46c:	80 95       	com	r24
 46e:	84 23       	and	r24, r20
 470:	8c 93       	st	X, r24
 472:	29 c0       	rjmp	.+82     	; 0x4c6 <MDIO_vSetPinValue+0x1ee>
				break;
			case DIO_PORTC_INDEX:
				CLEAR_BIT(PORTC , A_u8PinNum );
 474:	a5 e3       	ldi	r26, 0x35	; 53
 476:	b0 e0       	ldi	r27, 0x00	; 0
 478:	e5 e3       	ldi	r30, 0x35	; 53
 47a:	f0 e0       	ldi	r31, 0x00	; 0
 47c:	80 81       	ld	r24, Z
 47e:	48 2f       	mov	r20, r24
 480:	8a 81       	ldd	r24, Y+2	; 0x02
 482:	28 2f       	mov	r18, r24
 484:	30 e0       	ldi	r19, 0x00	; 0
 486:	81 e0       	ldi	r24, 0x01	; 1
 488:	90 e0       	ldi	r25, 0x00	; 0
 48a:	02 2e       	mov	r0, r18
 48c:	02 c0       	rjmp	.+4      	; 0x492 <MDIO_vSetPinValue+0x1ba>
 48e:	88 0f       	add	r24, r24
 490:	99 1f       	adc	r25, r25
 492:	0a 94       	dec	r0
 494:	e2 f7       	brpl	.-8      	; 0x48e <MDIO_vSetPinValue+0x1b6>
 496:	80 95       	com	r24
 498:	84 23       	and	r24, r20
 49a:	8c 93       	st	X, r24
 49c:	14 c0       	rjmp	.+40     	; 0x4c6 <MDIO_vSetPinValue+0x1ee>
				break;
			case DIO_PORTD_INDEX:
				CLEAR_BIT(PORTD , A_u8PinNum );
 49e:	a2 e3       	ldi	r26, 0x32	; 50
 4a0:	b0 e0       	ldi	r27, 0x00	; 0
 4a2:	e2 e3       	ldi	r30, 0x32	; 50
 4a4:	f0 e0       	ldi	r31, 0x00	; 0
 4a6:	80 81       	ld	r24, Z
 4a8:	48 2f       	mov	r20, r24
 4aa:	8a 81       	ldd	r24, Y+2	; 0x02
 4ac:	28 2f       	mov	r18, r24
 4ae:	30 e0       	ldi	r19, 0x00	; 0
 4b0:	81 e0       	ldi	r24, 0x01	; 1
 4b2:	90 e0       	ldi	r25, 0x00	; 0
 4b4:	02 2e       	mov	r0, r18
 4b6:	02 c0       	rjmp	.+4      	; 0x4bc <MDIO_vSetPinValue+0x1e4>
 4b8:	88 0f       	add	r24, r24
 4ba:	99 1f       	adc	r25, r25
 4bc:	0a 94       	dec	r0
 4be:	e2 f7       	brpl	.-8      	; 0x4b8 <MDIO_vSetPinValue+0x1e0>
 4c0:	80 95       	com	r24
 4c2:	84 23       	and	r24, r20
 4c4:	8c 93       	st	X, r24
			}
		}
	else{

	}
}
 4c6:	27 96       	adiw	r28, 0x07	; 7
 4c8:	0f b6       	in	r0, 0x3f	; 63
 4ca:	f8 94       	cli
 4cc:	de bf       	out	0x3e, r29	; 62
 4ce:	0f be       	out	0x3f, r0	; 63
 4d0:	cd bf       	out	0x3d, r28	; 61
 4d2:	cf 91       	pop	r28
 4d4:	df 91       	pop	r29
 4d6:	08 95       	ret

000004d8 <MDIO_u8GetPinValue>:


u8 MDIO_u8GetPinValue(u8 A_u8PortNum , u8 A_u8PinNum){
 4d8:	df 93       	push	r29
 4da:	cf 93       	push	r28
 4dc:	00 d0       	rcall	.+0      	; 0x4de <MDIO_u8GetPinValue+0x6>
 4de:	00 d0       	rcall	.+0      	; 0x4e0 <MDIO_u8GetPinValue+0x8>
 4e0:	00 d0       	rcall	.+0      	; 0x4e2 <MDIO_u8GetPinValue+0xa>
 4e2:	cd b7       	in	r28, 0x3d	; 61
 4e4:	de b7       	in	r29, 0x3e	; 62
 4e6:	8a 83       	std	Y+2, r24	; 0x02
 4e8:	6b 83       	std	Y+3, r22	; 0x03
	u8 L_u8PinVal = 0;
 4ea:	19 82       	std	Y+1, r1	; 0x01

	switch (A_u8PortNum) {
 4ec:	8a 81       	ldd	r24, Y+2	; 0x02
 4ee:	28 2f       	mov	r18, r24
 4f0:	30 e0       	ldi	r19, 0x00	; 0
 4f2:	3e 83       	std	Y+6, r19	; 0x06
 4f4:	2d 83       	std	Y+5, r18	; 0x05
 4f6:	4d 81       	ldd	r20, Y+5	; 0x05
 4f8:	5e 81       	ldd	r21, Y+6	; 0x06
 4fa:	41 30       	cpi	r20, 0x01	; 1
 4fc:	51 05       	cpc	r21, r1
 4fe:	41 f1       	breq	.+80     	; 0x550 <MDIO_u8GetPinValue+0x78>
 500:	8d 81       	ldd	r24, Y+5	; 0x05
 502:	9e 81       	ldd	r25, Y+6	; 0x06
 504:	82 30       	cpi	r24, 0x02	; 2
 506:	91 05       	cpc	r25, r1
 508:	34 f4       	brge	.+12     	; 0x516 <MDIO_u8GetPinValue+0x3e>
 50a:	2d 81       	ldd	r18, Y+5	; 0x05
 50c:	3e 81       	ldd	r19, Y+6	; 0x06
 50e:	21 15       	cp	r18, r1
 510:	31 05       	cpc	r19, r1
 512:	61 f0       	breq	.+24     	; 0x52c <MDIO_u8GetPinValue+0x54>
 514:	53 c0       	rjmp	.+166    	; 0x5bc <MDIO_u8GetPinValue+0xe4>
 516:	4d 81       	ldd	r20, Y+5	; 0x05
 518:	5e 81       	ldd	r21, Y+6	; 0x06
 51a:	42 30       	cpi	r20, 0x02	; 2
 51c:	51 05       	cpc	r21, r1
 51e:	51 f1       	breq	.+84     	; 0x574 <MDIO_u8GetPinValue+0x9c>
 520:	8d 81       	ldd	r24, Y+5	; 0x05
 522:	9e 81       	ldd	r25, Y+6	; 0x06
 524:	83 30       	cpi	r24, 0x03	; 3
 526:	91 05       	cpc	r25, r1
 528:	b9 f1       	breq	.+110    	; 0x598 <MDIO_u8GetPinValue+0xc0>
 52a:	48 c0       	rjmp	.+144    	; 0x5bc <MDIO_u8GetPinValue+0xe4>
		case DIO_PORTA_INDEX:
			L_u8PinVal = GET_BIT(PINA , A_u8PinNum );
 52c:	e9 e3       	ldi	r30, 0x39	; 57
 52e:	f0 e0       	ldi	r31, 0x00	; 0
 530:	80 81       	ld	r24, Z
 532:	28 2f       	mov	r18, r24
 534:	30 e0       	ldi	r19, 0x00	; 0
 536:	8b 81       	ldd	r24, Y+3	; 0x03
 538:	88 2f       	mov	r24, r24
 53a:	90 e0       	ldi	r25, 0x00	; 0
 53c:	a9 01       	movw	r20, r18
 53e:	02 c0       	rjmp	.+4      	; 0x544 <MDIO_u8GetPinValue+0x6c>
 540:	55 95       	asr	r21
 542:	47 95       	ror	r20
 544:	8a 95       	dec	r24
 546:	e2 f7       	brpl	.-8      	; 0x540 <MDIO_u8GetPinValue+0x68>
 548:	ca 01       	movw	r24, r20
 54a:	81 70       	andi	r24, 0x01	; 1
 54c:	89 83       	std	Y+1, r24	; 0x01
 54e:	39 c0       	rjmp	.+114    	; 0x5c2 <MDIO_u8GetPinValue+0xea>
			break;
		case DIO_PORTB_INDEX:
			L_u8PinVal = GET_BIT(PINB , A_u8PinNum );
 550:	e6 e3       	ldi	r30, 0x36	; 54
 552:	f0 e0       	ldi	r31, 0x00	; 0
 554:	80 81       	ld	r24, Z
 556:	28 2f       	mov	r18, r24
 558:	30 e0       	ldi	r19, 0x00	; 0
 55a:	8b 81       	ldd	r24, Y+3	; 0x03
 55c:	88 2f       	mov	r24, r24
 55e:	90 e0       	ldi	r25, 0x00	; 0
 560:	a9 01       	movw	r20, r18
 562:	02 c0       	rjmp	.+4      	; 0x568 <MDIO_u8GetPinValue+0x90>
 564:	55 95       	asr	r21
 566:	47 95       	ror	r20
 568:	8a 95       	dec	r24
 56a:	e2 f7       	brpl	.-8      	; 0x564 <MDIO_u8GetPinValue+0x8c>
 56c:	ca 01       	movw	r24, r20
 56e:	81 70       	andi	r24, 0x01	; 1
 570:	89 83       	std	Y+1, r24	; 0x01
 572:	27 c0       	rjmp	.+78     	; 0x5c2 <MDIO_u8GetPinValue+0xea>
			break;
		case DIO_PORTC_INDEX:
			L_u8PinVal = GET_BIT(PINC , A_u8PinNum );
 574:	e3 e3       	ldi	r30, 0x33	; 51
 576:	f0 e0       	ldi	r31, 0x00	; 0
 578:	80 81       	ld	r24, Z
 57a:	28 2f       	mov	r18, r24
 57c:	30 e0       	ldi	r19, 0x00	; 0
 57e:	8b 81       	ldd	r24, Y+3	; 0x03
 580:	88 2f       	mov	r24, r24
 582:	90 e0       	ldi	r25, 0x00	; 0
 584:	a9 01       	movw	r20, r18
 586:	02 c0       	rjmp	.+4      	; 0x58c <MDIO_u8GetPinValue+0xb4>
 588:	55 95       	asr	r21
 58a:	47 95       	ror	r20
 58c:	8a 95       	dec	r24
 58e:	e2 f7       	brpl	.-8      	; 0x588 <MDIO_u8GetPinValue+0xb0>
 590:	ca 01       	movw	r24, r20
 592:	81 70       	andi	r24, 0x01	; 1
 594:	89 83       	std	Y+1, r24	; 0x01
 596:	15 c0       	rjmp	.+42     	; 0x5c2 <MDIO_u8GetPinValue+0xea>
			break;
		case DIO_PORTD_INDEX:
			L_u8PinVal = GET_BIT(PIND , A_u8PinNum );
 598:	e0 e3       	ldi	r30, 0x30	; 48
 59a:	f0 e0       	ldi	r31, 0x00	; 0
 59c:	80 81       	ld	r24, Z
 59e:	28 2f       	mov	r18, r24
 5a0:	30 e0       	ldi	r19, 0x00	; 0
 5a2:	8b 81       	ldd	r24, Y+3	; 0x03
 5a4:	88 2f       	mov	r24, r24
 5a6:	90 e0       	ldi	r25, 0x00	; 0
 5a8:	a9 01       	movw	r20, r18
 5aa:	02 c0       	rjmp	.+4      	; 0x5b0 <MDIO_u8GetPinValue+0xd8>
 5ac:	55 95       	asr	r21
 5ae:	47 95       	ror	r20
 5b0:	8a 95       	dec	r24
 5b2:	e2 f7       	brpl	.-8      	; 0x5ac <MDIO_u8GetPinValue+0xd4>
 5b4:	ca 01       	movw	r24, r20
 5b6:	81 70       	andi	r24, 0x01	; 1
 5b8:	89 83       	std	Y+1, r24	; 0x01
 5ba:	03 c0       	rjmp	.+6      	; 0x5c2 <MDIO_u8GetPinValue+0xea>
			break;
		default:
			return 0xFF;
 5bc:	5f ef       	ldi	r21, 0xFF	; 255
 5be:	5c 83       	std	Y+4, r21	; 0x04
 5c0:	02 c0       	rjmp	.+4      	; 0x5c6 <MDIO_u8GetPinValue+0xee>
	}

	return L_u8PinVal;
 5c2:	89 81       	ldd	r24, Y+1	; 0x01
 5c4:	8c 83       	std	Y+4, r24	; 0x04
 5c6:	8c 81       	ldd	r24, Y+4	; 0x04
}
 5c8:	26 96       	adiw	r28, 0x06	; 6
 5ca:	0f b6       	in	r0, 0x3f	; 63
 5cc:	f8 94       	cli
 5ce:	de bf       	out	0x3e, r29	; 62
 5d0:	0f be       	out	0x3f, r0	; 63
 5d2:	cd bf       	out	0x3d, r28	; 61
 5d4:	cf 91       	pop	r28
 5d6:	df 91       	pop	r29
 5d8:	08 95       	ret

000005da <DIO_vTogglePin>:

void DIO_vTogglePin(u8 A_u8PortNum , u8 A_u8PinNum){
 5da:	df 93       	push	r29
 5dc:	cf 93       	push	r28
 5de:	00 d0       	rcall	.+0      	; 0x5e0 <DIO_vTogglePin+0x6>
 5e0:	00 d0       	rcall	.+0      	; 0x5e2 <DIO_vTogglePin+0x8>
 5e2:	cd b7       	in	r28, 0x3d	; 61
 5e4:	de b7       	in	r29, 0x3e	; 62
 5e6:	89 83       	std	Y+1, r24	; 0x01
 5e8:	6a 83       	std	Y+2, r22	; 0x02
	switch(A_u8PortNum){
 5ea:	89 81       	ldd	r24, Y+1	; 0x01
 5ec:	28 2f       	mov	r18, r24
 5ee:	30 e0       	ldi	r19, 0x00	; 0
 5f0:	3c 83       	std	Y+4, r19	; 0x04
 5f2:	2b 83       	std	Y+3, r18	; 0x03
 5f4:	8b 81       	ldd	r24, Y+3	; 0x03
 5f6:	9c 81       	ldd	r25, Y+4	; 0x04
 5f8:	81 30       	cpi	r24, 0x01	; 1
 5fa:	91 05       	cpc	r25, r1
 5fc:	49 f1       	breq	.+82     	; 0x650 <DIO_vTogglePin+0x76>
 5fe:	2b 81       	ldd	r18, Y+3	; 0x03
 600:	3c 81       	ldd	r19, Y+4	; 0x04
 602:	22 30       	cpi	r18, 0x02	; 2
 604:	31 05       	cpc	r19, r1
 606:	2c f4       	brge	.+10     	; 0x612 <DIO_vTogglePin+0x38>
 608:	8b 81       	ldd	r24, Y+3	; 0x03
 60a:	9c 81       	ldd	r25, Y+4	; 0x04
 60c:	00 97       	sbiw	r24, 0x00	; 0
 60e:	61 f0       	breq	.+24     	; 0x628 <DIO_vTogglePin+0x4e>
 610:	5a c0       	rjmp	.+180    	; 0x6c6 <DIO_vTogglePin+0xec>
 612:	2b 81       	ldd	r18, Y+3	; 0x03
 614:	3c 81       	ldd	r19, Y+4	; 0x04
 616:	22 30       	cpi	r18, 0x02	; 2
 618:	31 05       	cpc	r19, r1
 61a:	71 f1       	breq	.+92     	; 0x678 <DIO_vTogglePin+0x9e>
 61c:	8b 81       	ldd	r24, Y+3	; 0x03
 61e:	9c 81       	ldd	r25, Y+4	; 0x04
 620:	83 30       	cpi	r24, 0x03	; 3
 622:	91 05       	cpc	r25, r1
 624:	e9 f1       	breq	.+122    	; 0x6a0 <DIO_vTogglePin+0xc6>
 626:	4f c0       	rjmp	.+158    	; 0x6c6 <DIO_vTogglePin+0xec>
		case DIO_PORTA_INDEX:
			TOGGLE_BIT(PORTA , A_u8PinNum );
 628:	ab e3       	ldi	r26, 0x3B	; 59
 62a:	b0 e0       	ldi	r27, 0x00	; 0
 62c:	eb e3       	ldi	r30, 0x3B	; 59
 62e:	f0 e0       	ldi	r31, 0x00	; 0
 630:	80 81       	ld	r24, Z
 632:	48 2f       	mov	r20, r24
 634:	8a 81       	ldd	r24, Y+2	; 0x02
 636:	28 2f       	mov	r18, r24
 638:	30 e0       	ldi	r19, 0x00	; 0
 63a:	81 e0       	ldi	r24, 0x01	; 1
 63c:	90 e0       	ldi	r25, 0x00	; 0
 63e:	02 2e       	mov	r0, r18
 640:	02 c0       	rjmp	.+4      	; 0x646 <DIO_vTogglePin+0x6c>
 642:	88 0f       	add	r24, r24
 644:	99 1f       	adc	r25, r25
 646:	0a 94       	dec	r0
 648:	e2 f7       	brpl	.-8      	; 0x642 <DIO_vTogglePin+0x68>
 64a:	84 27       	eor	r24, r20
 64c:	8c 93       	st	X, r24
 64e:	3b c0       	rjmp	.+118    	; 0x6c6 <DIO_vTogglePin+0xec>
			break;
		case DIO_PORTB_INDEX:
			TOGGLE_BIT(PORTB , A_u8PinNum );
 650:	a8 e3       	ldi	r26, 0x38	; 56
 652:	b0 e0       	ldi	r27, 0x00	; 0
 654:	e8 e3       	ldi	r30, 0x38	; 56
 656:	f0 e0       	ldi	r31, 0x00	; 0
 658:	80 81       	ld	r24, Z
 65a:	48 2f       	mov	r20, r24
 65c:	8a 81       	ldd	r24, Y+2	; 0x02
 65e:	28 2f       	mov	r18, r24
 660:	30 e0       	ldi	r19, 0x00	; 0
 662:	81 e0       	ldi	r24, 0x01	; 1
 664:	90 e0       	ldi	r25, 0x00	; 0
 666:	02 2e       	mov	r0, r18
 668:	02 c0       	rjmp	.+4      	; 0x66e <DIO_vTogglePin+0x94>
 66a:	88 0f       	add	r24, r24
 66c:	99 1f       	adc	r25, r25
 66e:	0a 94       	dec	r0
 670:	e2 f7       	brpl	.-8      	; 0x66a <DIO_vTogglePin+0x90>
 672:	84 27       	eor	r24, r20
 674:	8c 93       	st	X, r24
 676:	27 c0       	rjmp	.+78     	; 0x6c6 <DIO_vTogglePin+0xec>
			break;
		case DIO_PORTC_INDEX:
			TOGGLE_BIT(PORTC , A_u8PinNum );
 678:	a5 e3       	ldi	r26, 0x35	; 53
 67a:	b0 e0       	ldi	r27, 0x00	; 0
 67c:	e5 e3       	ldi	r30, 0x35	; 53
 67e:	f0 e0       	ldi	r31, 0x00	; 0
 680:	80 81       	ld	r24, Z
 682:	48 2f       	mov	r20, r24
 684:	8a 81       	ldd	r24, Y+2	; 0x02
 686:	28 2f       	mov	r18, r24
 688:	30 e0       	ldi	r19, 0x00	; 0
 68a:	81 e0       	ldi	r24, 0x01	; 1
 68c:	90 e0       	ldi	r25, 0x00	; 0
 68e:	02 2e       	mov	r0, r18
 690:	02 c0       	rjmp	.+4      	; 0x696 <DIO_vTogglePin+0xbc>
 692:	88 0f       	add	r24, r24
 694:	99 1f       	adc	r25, r25
 696:	0a 94       	dec	r0
 698:	e2 f7       	brpl	.-8      	; 0x692 <DIO_vTogglePin+0xb8>
 69a:	84 27       	eor	r24, r20
 69c:	8c 93       	st	X, r24
 69e:	13 c0       	rjmp	.+38     	; 0x6c6 <DIO_vTogglePin+0xec>
			break;
		case DIO_PORTD_INDEX:
			TOGGLE_BIT(PORTD , A_u8PinNum );
 6a0:	a2 e3       	ldi	r26, 0x32	; 50
 6a2:	b0 e0       	ldi	r27, 0x00	; 0
 6a4:	e2 e3       	ldi	r30, 0x32	; 50
 6a6:	f0 e0       	ldi	r31, 0x00	; 0
 6a8:	80 81       	ld	r24, Z
 6aa:	48 2f       	mov	r20, r24
 6ac:	8a 81       	ldd	r24, Y+2	; 0x02
 6ae:	28 2f       	mov	r18, r24
 6b0:	30 e0       	ldi	r19, 0x00	; 0
 6b2:	81 e0       	ldi	r24, 0x01	; 1
 6b4:	90 e0       	ldi	r25, 0x00	; 0
 6b6:	02 2e       	mov	r0, r18
 6b8:	02 c0       	rjmp	.+4      	; 0x6be <DIO_vTogglePin+0xe4>
 6ba:	88 0f       	add	r24, r24
 6bc:	99 1f       	adc	r25, r25
 6be:	0a 94       	dec	r0
 6c0:	e2 f7       	brpl	.-8      	; 0x6ba <DIO_vTogglePin+0xe0>
 6c2:	84 27       	eor	r24, r20
 6c4:	8c 93       	st	X, r24
			break;

		default:break;
		}
}
 6c6:	0f 90       	pop	r0
 6c8:	0f 90       	pop	r0
 6ca:	0f 90       	pop	r0
 6cc:	0f 90       	pop	r0
 6ce:	cf 91       	pop	r28
 6d0:	df 91       	pop	r29
 6d2:	08 95       	ret

000006d4 <MDIO_vSetPortDirection>:

/*PORT Functions*/
void MDIO_vSetPortDirection(u8 A_u8PortNum ,u8 A_u8PinDirection){
 6d4:	df 93       	push	r29
 6d6:	cf 93       	push	r28
 6d8:	cd b7       	in	r28, 0x3d	; 61
 6da:	de b7       	in	r29, 0x3e	; 62
 6dc:	60 97       	sbiw	r28, 0x10	; 16
 6de:	0f b6       	in	r0, 0x3f	; 63
 6e0:	f8 94       	cli
 6e2:	de bf       	out	0x3e, r29	; 62
 6e4:	0f be       	out	0x3f, r0	; 63
 6e6:	cd bf       	out	0x3d, r28	; 61
 6e8:	89 83       	std	Y+1, r24	; 0x01
 6ea:	6a 83       	std	Y+2, r22	; 0x02
	switch(A_u8PortNum){
 6ec:	89 81       	ldd	r24, Y+1	; 0x01
 6ee:	28 2f       	mov	r18, r24
 6f0:	30 e0       	ldi	r19, 0x00	; 0
 6f2:	38 8b       	std	Y+16, r19	; 0x10
 6f4:	2f 87       	std	Y+15, r18	; 0x0f
 6f6:	8f 85       	ldd	r24, Y+15	; 0x0f
 6f8:	98 89       	ldd	r25, Y+16	; 0x10
 6fa:	81 30       	cpi	r24, 0x01	; 1
 6fc:	91 05       	cpc	r25, r1
 6fe:	31 f1       	breq	.+76     	; 0x74c <MDIO_vSetPortDirection+0x78>
 700:	ef 85       	ldd	r30, Y+15	; 0x0f
 702:	f8 89       	ldd	r31, Y+16	; 0x10
 704:	e2 30       	cpi	r30, 0x02	; 2
 706:	f1 05       	cpc	r31, r1
 708:	34 f4       	brge	.+12     	; 0x716 <MDIO_vSetPortDirection+0x42>
 70a:	2f 85       	ldd	r18, Y+15	; 0x0f
 70c:	38 89       	ldd	r19, Y+16	; 0x10
 70e:	21 15       	cp	r18, r1
 710:	31 05       	cpc	r19, r1
 712:	61 f0       	breq	.+24     	; 0x72c <MDIO_vSetPortDirection+0x58>
 714:	4a c0       	rjmp	.+148    	; 0x7aa <MDIO_vSetPortDirection+0xd6>
 716:	8f 85       	ldd	r24, Y+15	; 0x0f
 718:	98 89       	ldd	r25, Y+16	; 0x10
 71a:	82 30       	cpi	r24, 0x02	; 2
 71c:	91 05       	cpc	r25, r1
 71e:	31 f1       	breq	.+76     	; 0x76c <MDIO_vSetPortDirection+0x98>
 720:	ef 85       	ldd	r30, Y+15	; 0x0f
 722:	f8 89       	ldd	r31, Y+16	; 0x10
 724:	e3 30       	cpi	r30, 0x03	; 3
 726:	f1 05       	cpc	r31, r1
 728:	89 f1       	breq	.+98     	; 0x78c <MDIO_vSetPortDirection+0xb8>
 72a:	3f c0       	rjmp	.+126    	; 0x7aa <MDIO_vSetPortDirection+0xd6>
		case DIO_PORTA_INDEX:
			DDRA = A_u8PinDirection?0xff:0;
 72c:	2a e3       	ldi	r18, 0x3A	; 58
 72e:	30 e0       	ldi	r19, 0x00	; 0
 730:	3e 87       	std	Y+14, r19	; 0x0e
 732:	2d 87       	std	Y+13, r18	; 0x0d
 734:	8a 81       	ldd	r24, Y+2	; 0x02
 736:	88 23       	and	r24, r24
 738:	19 f0       	breq	.+6      	; 0x740 <MDIO_vSetPortDirection+0x6c>
 73a:	3f ef       	ldi	r19, 0xFF	; 255
 73c:	3c 87       	std	Y+12, r19	; 0x0c
 73e:	01 c0       	rjmp	.+2      	; 0x742 <MDIO_vSetPortDirection+0x6e>
 740:	1c 86       	std	Y+12, r1	; 0x0c
 742:	2c 85       	ldd	r18, Y+12	; 0x0c
 744:	ed 85       	ldd	r30, Y+13	; 0x0d
 746:	fe 85       	ldd	r31, Y+14	; 0x0e
 748:	20 83       	st	Z, r18
 74a:	2f c0       	rjmp	.+94     	; 0x7aa <MDIO_vSetPortDirection+0xd6>
			break;
		case DIO_PORTB_INDEX:
			DDRB = A_u8PinDirection?0xff:0;
 74c:	87 e3       	ldi	r24, 0x37	; 55
 74e:	90 e0       	ldi	r25, 0x00	; 0
 750:	9b 87       	std	Y+11, r25	; 0x0b
 752:	8a 87       	std	Y+10, r24	; 0x0a
 754:	8a 81       	ldd	r24, Y+2	; 0x02
 756:	88 23       	and	r24, r24
 758:	19 f0       	breq	.+6      	; 0x760 <MDIO_vSetPortDirection+0x8c>
 75a:	9f ef       	ldi	r25, 0xFF	; 255
 75c:	99 87       	std	Y+9, r25	; 0x09
 75e:	01 c0       	rjmp	.+2      	; 0x762 <MDIO_vSetPortDirection+0x8e>
 760:	19 86       	std	Y+9, r1	; 0x09
 762:	29 85       	ldd	r18, Y+9	; 0x09
 764:	ea 85       	ldd	r30, Y+10	; 0x0a
 766:	fb 85       	ldd	r31, Y+11	; 0x0b
 768:	20 83       	st	Z, r18
 76a:	1f c0       	rjmp	.+62     	; 0x7aa <MDIO_vSetPortDirection+0xd6>
			break;
		case DIO_PORTC_INDEX:
			DDRC = A_u8PinDirection?0xff:0;
 76c:	84 e3       	ldi	r24, 0x34	; 52
 76e:	90 e0       	ldi	r25, 0x00	; 0
 770:	98 87       	std	Y+8, r25	; 0x08
 772:	8f 83       	std	Y+7, r24	; 0x07
 774:	8a 81       	ldd	r24, Y+2	; 0x02
 776:	88 23       	and	r24, r24
 778:	19 f0       	breq	.+6      	; 0x780 <MDIO_vSetPortDirection+0xac>
 77a:	9f ef       	ldi	r25, 0xFF	; 255
 77c:	9e 83       	std	Y+6, r25	; 0x06
 77e:	01 c0       	rjmp	.+2      	; 0x782 <MDIO_vSetPortDirection+0xae>
 780:	1e 82       	std	Y+6, r1	; 0x06
 782:	2e 81       	ldd	r18, Y+6	; 0x06
 784:	ef 81       	ldd	r30, Y+7	; 0x07
 786:	f8 85       	ldd	r31, Y+8	; 0x08
 788:	20 83       	st	Z, r18
 78a:	0f c0       	rjmp	.+30     	; 0x7aa <MDIO_vSetPortDirection+0xd6>
			break;
		case DIO_PORTD_INDEX:
			DDRD = A_u8PinDirection?0xff:0;
 78c:	81 e3       	ldi	r24, 0x31	; 49
 78e:	90 e0       	ldi	r25, 0x00	; 0
 790:	9d 83       	std	Y+5, r25	; 0x05
 792:	8c 83       	std	Y+4, r24	; 0x04
 794:	8a 81       	ldd	r24, Y+2	; 0x02
 796:	88 23       	and	r24, r24
 798:	19 f0       	breq	.+6      	; 0x7a0 <MDIO_vSetPortDirection+0xcc>
 79a:	9f ef       	ldi	r25, 0xFF	; 255
 79c:	9b 83       	std	Y+3, r25	; 0x03
 79e:	01 c0       	rjmp	.+2      	; 0x7a2 <MDIO_vSetPortDirection+0xce>
 7a0:	1b 82       	std	Y+3, r1	; 0x03
 7a2:	2b 81       	ldd	r18, Y+3	; 0x03
 7a4:	ec 81       	ldd	r30, Y+4	; 0x04
 7a6:	fd 81       	ldd	r31, Y+5	; 0x05
 7a8:	20 83       	st	Z, r18
			break;
		default:break;
	}
}
 7aa:	60 96       	adiw	r28, 0x10	; 16
 7ac:	0f b6       	in	r0, 0x3f	; 63
 7ae:	f8 94       	cli
 7b0:	de bf       	out	0x3e, r29	; 62
 7b2:	0f be       	out	0x3f, r0	; 63
 7b4:	cd bf       	out	0x3d, r28	; 61
 7b6:	cf 91       	pop	r28
 7b8:	df 91       	pop	r29
 7ba:	08 95       	ret

000007bc <MDIO_vSetPortValue>:


void MDIO_vSetPortValue(u8 A_u8PortNum , u8 A_u8PinVal){
 7bc:	df 93       	push	r29
 7be:	cf 93       	push	r28
 7c0:	00 d0       	rcall	.+0      	; 0x7c2 <MDIO_vSetPortValue+0x6>
 7c2:	00 d0       	rcall	.+0      	; 0x7c4 <MDIO_vSetPortValue+0x8>
 7c4:	cd b7       	in	r28, 0x3d	; 61
 7c6:	de b7       	in	r29, 0x3e	; 62
 7c8:	89 83       	std	Y+1, r24	; 0x01
 7ca:	6a 83       	std	Y+2, r22	; 0x02
	switch(A_u8PortNum){
 7cc:	89 81       	ldd	r24, Y+1	; 0x01
 7ce:	28 2f       	mov	r18, r24
 7d0:	30 e0       	ldi	r19, 0x00	; 0
 7d2:	3c 83       	std	Y+4, r19	; 0x04
 7d4:	2b 83       	std	Y+3, r18	; 0x03
 7d6:	8b 81       	ldd	r24, Y+3	; 0x03
 7d8:	9c 81       	ldd	r25, Y+4	; 0x04
 7da:	81 30       	cpi	r24, 0x01	; 1
 7dc:	91 05       	cpc	r25, r1
 7de:	d1 f0       	breq	.+52     	; 0x814 <MDIO_vSetPortValue+0x58>
 7e0:	2b 81       	ldd	r18, Y+3	; 0x03
 7e2:	3c 81       	ldd	r19, Y+4	; 0x04
 7e4:	22 30       	cpi	r18, 0x02	; 2
 7e6:	31 05       	cpc	r19, r1
 7e8:	2c f4       	brge	.+10     	; 0x7f4 <MDIO_vSetPortValue+0x38>
 7ea:	8b 81       	ldd	r24, Y+3	; 0x03
 7ec:	9c 81       	ldd	r25, Y+4	; 0x04
 7ee:	00 97       	sbiw	r24, 0x00	; 0
 7f0:	61 f0       	breq	.+24     	; 0x80a <MDIO_vSetPortValue+0x4e>
 7f2:	1e c0       	rjmp	.+60     	; 0x830 <MDIO_vSetPortValue+0x74>
 7f4:	2b 81       	ldd	r18, Y+3	; 0x03
 7f6:	3c 81       	ldd	r19, Y+4	; 0x04
 7f8:	22 30       	cpi	r18, 0x02	; 2
 7fa:	31 05       	cpc	r19, r1
 7fc:	81 f0       	breq	.+32     	; 0x81e <MDIO_vSetPortValue+0x62>
 7fe:	8b 81       	ldd	r24, Y+3	; 0x03
 800:	9c 81       	ldd	r25, Y+4	; 0x04
 802:	83 30       	cpi	r24, 0x03	; 3
 804:	91 05       	cpc	r25, r1
 806:	81 f0       	breq	.+32     	; 0x828 <MDIO_vSetPortValue+0x6c>
 808:	13 c0       	rjmp	.+38     	; 0x830 <MDIO_vSetPortValue+0x74>
		case DIO_PORTA_INDEX:
			PORTA = A_u8PinVal;
 80a:	eb e3       	ldi	r30, 0x3B	; 59
 80c:	f0 e0       	ldi	r31, 0x00	; 0
 80e:	8a 81       	ldd	r24, Y+2	; 0x02
 810:	80 83       	st	Z, r24
 812:	0e c0       	rjmp	.+28     	; 0x830 <MDIO_vSetPortValue+0x74>
			break;
		case DIO_PORTB_INDEX:
			PORTB = A_u8PinVal;
 814:	e8 e3       	ldi	r30, 0x38	; 56
 816:	f0 e0       	ldi	r31, 0x00	; 0
 818:	8a 81       	ldd	r24, Y+2	; 0x02
 81a:	80 83       	st	Z, r24
 81c:	09 c0       	rjmp	.+18     	; 0x830 <MDIO_vSetPortValue+0x74>
			break;
		case DIO_PORTC_INDEX:
			PORTC = A_u8PinVal;
 81e:	e5 e3       	ldi	r30, 0x35	; 53
 820:	f0 e0       	ldi	r31, 0x00	; 0
 822:	8a 81       	ldd	r24, Y+2	; 0x02
 824:	80 83       	st	Z, r24
 826:	04 c0       	rjmp	.+8      	; 0x830 <MDIO_vSetPortValue+0x74>
			break;
		case DIO_PORTD_INDEX:
			PORTD = A_u8PinVal;
 828:	e2 e3       	ldi	r30, 0x32	; 50
 82a:	f0 e0       	ldi	r31, 0x00	; 0
 82c:	8a 81       	ldd	r24, Y+2	; 0x02
 82e:	80 83       	st	Z, r24
			break;

		default:break;
	}
}
 830:	0f 90       	pop	r0
 832:	0f 90       	pop	r0
 834:	0f 90       	pop	r0
 836:	0f 90       	pop	r0
 838:	cf 91       	pop	r28
 83a:	df 91       	pop	r29
 83c:	08 95       	ret

0000083e <MDIO_u8GetPortValue>:


u8  MDIO_u8GetPortValue(u8 A_u8PortNum ){
 83e:	df 93       	push	r29
 840:	cf 93       	push	r28
 842:	00 d0       	rcall	.+0      	; 0x844 <MDIO_u8GetPortValue+0x6>
 844:	00 d0       	rcall	.+0      	; 0x846 <MDIO_u8GetPortValue+0x8>
 846:	cd b7       	in	r28, 0x3d	; 61
 848:	de b7       	in	r29, 0x3e	; 62
 84a:	8a 83       	std	Y+2, r24	; 0x02
	u8 L_u8PortValue = 0;
 84c:	19 82       	std	Y+1, r1	; 0x01
	switch(A_u8PortNum){
 84e:	8a 81       	ldd	r24, Y+2	; 0x02
 850:	28 2f       	mov	r18, r24
 852:	30 e0       	ldi	r19, 0x00	; 0
 854:	3c 83       	std	Y+4, r19	; 0x04
 856:	2b 83       	std	Y+3, r18	; 0x03
 858:	8b 81       	ldd	r24, Y+3	; 0x03
 85a:	9c 81       	ldd	r25, Y+4	; 0x04
 85c:	81 30       	cpi	r24, 0x01	; 1
 85e:	91 05       	cpc	r25, r1
 860:	d1 f0       	breq	.+52     	; 0x896 <__stack+0x37>
 862:	2b 81       	ldd	r18, Y+3	; 0x03
 864:	3c 81       	ldd	r19, Y+4	; 0x04
 866:	22 30       	cpi	r18, 0x02	; 2
 868:	31 05       	cpc	r19, r1
 86a:	2c f4       	brge	.+10     	; 0x876 <__stack+0x17>
 86c:	8b 81       	ldd	r24, Y+3	; 0x03
 86e:	9c 81       	ldd	r25, Y+4	; 0x04
 870:	00 97       	sbiw	r24, 0x00	; 0
 872:	61 f0       	breq	.+24     	; 0x88c <__stack+0x2d>
 874:	1e c0       	rjmp	.+60     	; 0x8b2 <__stack+0x53>
 876:	2b 81       	ldd	r18, Y+3	; 0x03
 878:	3c 81       	ldd	r19, Y+4	; 0x04
 87a:	22 30       	cpi	r18, 0x02	; 2
 87c:	31 05       	cpc	r19, r1
 87e:	81 f0       	breq	.+32     	; 0x8a0 <__stack+0x41>
 880:	8b 81       	ldd	r24, Y+3	; 0x03
 882:	9c 81       	ldd	r25, Y+4	; 0x04
 884:	83 30       	cpi	r24, 0x03	; 3
 886:	91 05       	cpc	r25, r1
 888:	81 f0       	breq	.+32     	; 0x8aa <__stack+0x4b>
 88a:	13 c0       	rjmp	.+38     	; 0x8b2 <__stack+0x53>
		case DIO_PORTA_INDEX:
			L_u8PortValue =  PINA;
 88c:	e9 e3       	ldi	r30, 0x39	; 57
 88e:	f0 e0       	ldi	r31, 0x00	; 0
 890:	80 81       	ld	r24, Z
 892:	89 83       	std	Y+1, r24	; 0x01
 894:	0e c0       	rjmp	.+28     	; 0x8b2 <__stack+0x53>
			break;
		case DIO_PORTB_INDEX:
			L_u8PortValue =  PINB;
 896:	e6 e3       	ldi	r30, 0x36	; 54
 898:	f0 e0       	ldi	r31, 0x00	; 0
 89a:	80 81       	ld	r24, Z
 89c:	89 83       	std	Y+1, r24	; 0x01
 89e:	09 c0       	rjmp	.+18     	; 0x8b2 <__stack+0x53>
			break;
		case DIO_PORTC_INDEX:
			L_u8PortValue =  PINC;
 8a0:	e3 e3       	ldi	r30, 0x33	; 51
 8a2:	f0 e0       	ldi	r31, 0x00	; 0
 8a4:	80 81       	ld	r24, Z
 8a6:	89 83       	std	Y+1, r24	; 0x01
 8a8:	04 c0       	rjmp	.+8      	; 0x8b2 <__stack+0x53>
			break;
		case DIO_PORTD_INDEX:
			L_u8PortValue =  PIND;
 8aa:	e0 e3       	ldi	r30, 0x30	; 48
 8ac:	f0 e0       	ldi	r31, 0x00	; 0
 8ae:	80 81       	ld	r24, Z
 8b0:	89 83       	std	Y+1, r24	; 0x01
			break;
		default:break;
	}

	return L_u8PortValue;
 8b2:	89 81       	ldd	r24, Y+1	; 0x01
}
 8b4:	0f 90       	pop	r0
 8b6:	0f 90       	pop	r0
 8b8:	0f 90       	pop	r0
 8ba:	0f 90       	pop	r0
 8bc:	cf 91       	pop	r28
 8be:	df 91       	pop	r29
 8c0:	08 95       	ret

000008c2 <HSSD_vInit>:
		0b11111000, // 7
		0b10000000, // 8
		0b10010000  // 9
		};

void HSSD_vInit(void) {
 8c2:	df 93       	push	r29
 8c4:	cf 93       	push	r28
 8c6:	cd b7       	in	r28, 0x3d	; 61
 8c8:	de b7       	in	r29, 0x3e	; 62
	MDIO_vSetPortValue(HSSD_INIT_PORT, DIO_PORT_HIGH);
 8ca:	83 e0       	ldi	r24, 0x03	; 3
 8cc:	6f ef       	ldi	r22, 0xFF	; 255
 8ce:	0e 94 de 03 	call	0x7bc	; 0x7bc <MDIO_vSetPortValue>
}
 8d2:	cf 91       	pop	r28
 8d4:	df 91       	pop	r29
 8d6:	08 95       	ret

000008d8 <HSSD_DisplayNumber>:

void HSSD_DisplayNumber(u8 A_u8Num) {
 8d8:	df 93       	push	r29
 8da:	cf 93       	push	r28
 8dc:	0f 92       	push	r0
 8de:	cd b7       	in	r28, 0x3d	; 61
 8e0:	de b7       	in	r29, 0x3e	; 62
 8e2:	89 83       	std	Y+1, r24	; 0x01
	MDIO_vSetPortDirection(HSSD_INIT_PORT , DIO_PORT_DIRECTION_OUTPUT);
 8e4:	83 e0       	ldi	r24, 0x03	; 3
 8e6:	6f ef       	ldi	r22, 0xFF	; 255
 8e8:	0e 94 6a 03 	call	0x6d4	; 0x6d4 <MDIO_vSetPortDirection>
	if (A_u8Num < 10){
 8ec:	89 81       	ldd	r24, Y+1	; 0x01
 8ee:	8a 30       	cpi	r24, 0x0A	; 10
 8f0:	70 f4       	brcc	.+28     	; 0x90e <HSSD_DisplayNumber+0x36>

	#if 	HSSD_TYPE == HSSD_COMMON_CATHODE
		MDIO_vSetPortValue(HSSD_INIT_PORT, seven_seg_commnoc_cathode[A_u8Num]);

	#elif 	HSSD_TYPE == HSSD_COMMON_ANODE
		MDIO_vSetPortValue(HSSD_INIT_PORT , ~(seven_seg_commnoc_cathode[A_u8Num]));
 8f2:	89 81       	ldd	r24, Y+1	; 0x01
 8f4:	88 2f       	mov	r24, r24
 8f6:	90 e0       	ldi	r25, 0x00	; 0
 8f8:	fc 01       	movw	r30, r24
 8fa:	e0 5a       	subi	r30, 0xA0	; 160
 8fc:	ff 4f       	sbci	r31, 0xFF	; 255
 8fe:	80 81       	ld	r24, Z
 900:	98 2f       	mov	r25, r24
 902:	90 95       	com	r25
 904:	83 e0       	ldi	r24, 0x03	; 3
 906:	69 2f       	mov	r22, r25
 908:	0e 94 de 03 	call	0x7bc	; 0x7bc <MDIO_vSetPortValue>
 90c:	06 c0       	rjmp	.+12     	; 0x91a <HSSD_DisplayNumber+0x42>

	#endif
	}
	else{
		MDIO_vSetPortValue(HSSD_INIT_PORT , (seven_seg_commnoc_cathode[1]));
 90e:	90 91 61 00 	lds	r25, 0x0061
 912:	83 e0       	ldi	r24, 0x03	; 3
 914:	69 2f       	mov	r22, r25
 916:	0e 94 de 03 	call	0x7bc	; 0x7bc <MDIO_vSetPortValue>
	}
}
 91a:	0f 90       	pop	r0
 91c:	cf 91       	pop	r28
 91e:	df 91       	pop	r29
 920:	08 95       	ret

00000922 <main>:
//    0b01111111, // 8
//    0b01101111  // 9
//};

int main()
{
 922:	df 93       	push	r29
 924:	cf 93       	push	r28
 926:	cd b7       	in	r28, 0x3d	; 61
 928:	de b7       	in	r29, 0x3e	; 62
//	DIO_vSetPinDirection(DIO_PORTA_INDEX , DIO_PIN0 , DIO_PIN_DIRECTION_INPUT);
//	DIO_vSetPinDirection(DIO_PORTA_INDEX , DIO_PIN1 , DIO_PIN_DIRECTION_OUTPUT);
//
//	DIO_vSetPinValue(DIO_PORTA_INDEX , DIO_PIN0 , 1 );

	MDIO_vInit();
 92a:	0e 94 41 00 	call	0x82	; 0x82 <MDIO_vInit>
	HSSD_vInit();
 92e:	0e 94 61 04 	call	0x8c2	; 0x8c2 <HSSD_vInit>
	HSSD_DisplayNumber(3);
 932:	83 e0       	ldi	r24, 0x03	; 3
 934:	0e 94 6c 04 	call	0x8d8	; 0x8d8 <HSSD_DisplayNumber>
 938:	ff cf       	rjmp	.-2      	; 0x938 <main+0x16>

0000093a <_exit>:
 93a:	f8 94       	cli

0000093c <__stop_program>:
 93c:	ff cf       	rjmp	.-2      	; 0x93c <__stop_program>
